target datalayout = "e-m:e-p270:32:32-p271:32:32-p272:64:64-i64:64-i128:128-f80:128-n8:16:32:64-S128"
target triple = "x86_64-pc-linux-gnu"

%struct.FunctionCallInfoBaseData = type { ptr, ptr, ptr, i32, i8, i16, [0 x %struct.NullableDatum] }
%struct.NullableDatum = type { i64, i8 }

@.str.3 = private unnamed_addr constant [7 x i8] c"date.c\00", align 1
@.str.21 = private unnamed_addr constant [18 x i8] c"time out of range\00", align 1
@__func__.time_recv = private unnamed_addr constant [10 x i8] c"time_recv\00", align 1
@AdjustTimeForTypmod.TimeScales = internal constant [7 x i64] [i64 1000000, i64 100000, i64 10000, i64 1000, i64 100, i64 10, i64 1], align 16
@AdjustTimeForTypmod.TimeOffsets = internal constant [7 x i64] [i64 500000, i64 50000, i64 5000, i64 500, i64 50, i64 5, i64 0], align 16

; Function Attrs: inlinehint nounwind uwtable
define internal i64 @Int64GetDatum(i64 noundef %0) #4 {
  %2 = alloca i64, align 8
  store i64 %0, ptr %2, align 8
  %3 = load i64, ptr %2, align 8
  ret i64 %3
}

; Function Attrs: inlinehint nounwind uwtable
define internal i64 @TimeADTGetDatum(i64 noundef %0) #4 {
  %2 = alloca i64, align 8
  store i64 %0, ptr %2, align 8
  %3 = load i64, ptr %2, align 8
  %4 = call i64 @Int64GetDatum(i64 noundef %3)
  ret i64 %4
}

; Function Attrs: nounwind uwtable
define dso_local void @AdjustTimeForTypmod(ptr noundef %0, i32 noundef %1) #0 {
  %3 = alloca ptr, align 8
  %4 = alloca i32, align 4
  store ptr %0, ptr %3, align 8
  store i32 %1, ptr %4, align 4
  %5 = load i32, ptr %4, align 4
  %6 = icmp sge i32 %5, 0
  br i1 %6, label %7, label %55

7:                                                ; preds = %2
  %8 = load i32, ptr %4, align 4
  %9 = icmp sle i32 %8, 6
  br i1 %9, label %10, label %55

10:                                               ; preds = %7
  %11 = load ptr, ptr %3, align 8
  %12 = load i64, ptr %11, align 8
  %13 = icmp sge i64 %12, 0
  br i1 %13, label %14, label %33

14:                                               ; preds = %10
  %15 = load ptr, ptr %3, align 8
  %16 = load i64, ptr %15, align 8
  %17 = load i32, ptr %4, align 4
  %18 = sext i32 %17 to i64
  %19 = getelementptr inbounds [7 x i64], ptr @AdjustTimeForTypmod.TimeOffsets, i64 0, i64 %18
  %20 = load i64, ptr %19, align 8
  %21 = add i64 %16, %20
  %22 = load i32, ptr %4, align 4
  %23 = sext i32 %22 to i64
  %24 = getelementptr inbounds [7 x i64], ptr @AdjustTimeForTypmod.TimeScales, i64 0, i64 %23
  %25 = load i64, ptr %24, align 8
  %26 = sdiv i64 %21, %25
  %27 = load i32, ptr %4, align 4
  %28 = sext i32 %27 to i64
  %29 = getelementptr inbounds [7 x i64], ptr @AdjustTimeForTypmod.TimeScales, i64 0, i64 %28
  %30 = load i64, ptr %29, align 8
  %31 = mul i64 %26, %30
  %32 = load ptr, ptr %3, align 8
  store i64 %31, ptr %32, align 8
  br label %54

33:                                               ; preds = %10
  %34 = load ptr, ptr %3, align 8
  %35 = load i64, ptr %34, align 8
  %36 = sub i64 0, %35
  %37 = load i32, ptr %4, align 4
  %38 = sext i32 %37 to i64
  %39 = getelementptr inbounds [7 x i64], ptr @AdjustTimeForTypmod.TimeOffsets, i64 0, i64 %38
  %40 = load i64, ptr %39, align 8
  %41 = add i64 %36, %40
  %42 = load i32, ptr %4, align 4
  %43 = sext i32 %42 to i64
  %44 = getelementptr inbounds [7 x i64], ptr @AdjustTimeForTypmod.TimeScales, i64 0, i64 %43
  %45 = load i64, ptr %44, align 8
  %46 = sdiv i64 %41, %45
  %47 = load i32, ptr %4, align 4
  %48 = sext i32 %47 to i64
  %49 = getelementptr inbounds [7 x i64], ptr @AdjustTimeForTypmod.TimeScales, i64 0, i64 %48
  %50 = load i64, ptr %49, align 8
  %51 = mul i64 %46, %50
  %52 = sub i64 0, %51
  %53 = load ptr, ptr %3, align 8
  store i64 %52, ptr %53, align 8
  br label %54

54:                                               ; preds = %33, %14
  br label %55

55:                                               ; preds = %54, %7, %2
  ret void
}

; Function Attrs: inlinehint nounwind uwtable
define internal i32 @DatumGetInt32(i64 noundef %0) #4 {
  %2 = alloca i64, align 8
  store i64 %0, ptr %2, align 8
  %3 = load i64, ptr %2, align 8
  %4 = trunc i64 %3 to i32
  ret i32 %4
}

; Function Attrs: inlinehint nounwind uwtable
define internal ptr @DatumGetPointer(i64 noundef %0) #4 {
  %2 = alloca i64, align 8
  store i64 %0, ptr %2, align 8
  %3 = load i64, ptr %2, align 8
  %4 = inttoptr i64 %3 to ptr
  ret ptr %4
}

; Function Attrs: nounwind uwtable
define dso_local i64 @time_recv(ptr noundef %0) #0 {
  %2 = alloca ptr, align 8
  %3 = alloca ptr, align 8
  %4 = alloca i32, align 4
  %5 = alloca i64, align 8
  store ptr %0, ptr %2, align 8
  call void @llvm.lifetime.start.p0(i64 8, ptr %3) #9
  %6 = load ptr, ptr %2, align 8
  %7 = getelementptr inbounds nuw %struct.FunctionCallInfoBaseData, ptr %6, i32 0, i32 6
  %8 = getelementptr inbounds [0 x %struct.NullableDatum], ptr %7, i64 0, i64 0
  %9 = getelementptr inbounds nuw %struct.NullableDatum, ptr %8, i32 0, i32 0
  %10 = load i64, ptr %9, align 8
  %11 = call ptr @DatumGetPointer(i64 noundef %10)
  store ptr %11, ptr %3, align 8
  call void @llvm.lifetime.start.p0(i64 4, ptr %4) #9
  %12 = load ptr, ptr %2, align 8
  %13 = getelementptr inbounds nuw %struct.FunctionCallInfoBaseData, ptr %12, i32 0, i32 6
  %14 = getelementptr inbounds [0 x %struct.NullableDatum], ptr %13, i64 0, i64 2
  %15 = getelementptr inbounds nuw %struct.NullableDatum, ptr %14, i32 0, i32 0
  %16 = load i64, ptr %15, align 8
  %17 = call i32 @DatumGetInt32(i64 noundef %16)
  store i32 %17, ptr %4, align 4
  call void @llvm.lifetime.start.p0(i64 8, ptr %5) #9
  %18 = load ptr, ptr %3, align 8
  %19 = call i64 @pq_getmsgint64(ptr noundef %18)
  store i64 %19, ptr %5, align 8
  %20 = load i64, ptr %5, align 8
  %21 = icmp slt i64 %20, 0
  br i1 %21, label %25, label %22

22:                                               ; preds = %1
  %23 = load i64, ptr %5, align 8
  %24 = icmp sgt i64 %23, 86400000000
  br i1 %24, label %25, label %37

25:                                               ; preds = %22, %1
  br label %26

26:                                               ; preds = %25
  br i1 true, label %27, label %29

27:                                               ; preds = %26
  %28 = call zeroext i1 @errstart_cold(i32 noundef 21, ptr noundef null) #8
  br i1 %28, label %31, label %34

29:                                               ; preds = %26
  %30 = call zeroext i1 @errstart(i32 noundef 21, ptr noundef null)
  br i1 %30, label %31, label %34

31:                                               ; preds = %29, %27
  %32 = call i32 @errcode(i32 noundef 134217858)
  %33 = call i32 (ptr, ...) @errmsg(ptr noundef @.str.21)
  call void @errfinish(ptr noundef @.str.3, i32 noundef 1555, ptr noundef @__func__.time_recv)
  br label %34

34:                                               ; preds = %31, %29, %27
  unreachable

35:                                               ; No predecessors!
  br label %36

36:                                               ; preds = %35
  br label %37

37:                                               ; preds = %36, %22
  %38 = load i32, ptr %4, align 4
  call void @AdjustTimeForTypmod(ptr noundef %5, i32 noundef %38)
  %39 = load i64, ptr %5, align 8
  %40 = call i64 @TimeADTGetDatum(i64 noundef %39)
  call void @llvm.lifetime.end.p0(i64 8, ptr %5) #9
  call void @llvm.lifetime.end.p0(i64 4, ptr %4) #9
  call void @llvm.lifetime.end.p0(i64 8, ptr %3) #9
  ret i64 %40
}