; Function Attrs: nounwind uwtable
define dso_local i64 @time_recv(ptr noundef readonly captures(none) %0) local_unnamed_addr #0 {
  %2 = getelementptr inbounds nuw i8, ptr %0, i64 32
  %3 = load i64, ptr %2, align 8
  %4 = inttoptr i64 %3 to ptr
  %5 = getelementptr inbounds nuw i8, ptr %0, i64 64
  %6 = load i64, ptr %5, align 8
  %7 = tail call i64 @pq_getmsgint64(ptr noundef %4) #16
  %or.cond = icmp ugt i64 %7, 86400000000
  br i1 %or.cond, label %8, label %12

8:                                                ; preds = %1
  %9 = tail call zeroext i1 @errstart_cold(i32 noundef 21, ptr noundef null) #15
  tail call void @llvm.assume(i1 %9)
  %10 = tail call i32 @errcode(i32 noundef 134217858) #16
  %11 = tail call i32 (ptr, ...) @errmsg(ptr noundef nonnull @.str.21) #16
  tail call void @errfinish(ptr noundef nonnull @.str.3, i32 noundef 1555, ptr noundef nonnull @__func__.time_recv) #16
  unreachable

12:                                               ; preds = %1
  %13 = trunc i64 %6 to i32
  %or.cond.i = icmp ult i32 %13, 7
  br i1 %or.cond.i, label %.sink.split.i, label %AdjustTimeForTypmod.exit

.sink.split.i:                                    ; preds = %12
  %14 = and i64 %6, 7
  %15 = getelementptr inbounds nuw [7 x i64], ptr @AdjustTimeForTypmod.TimeOffsets, i64 0, i64 %14
  %16 = load i64, ptr %15, align 8
  %17 = getelementptr inbounds nuw [7 x i64], ptr @AdjustTimeForTypmod.TimeScales, i64 0, i64 %14
  %18 = load i64, ptr %17, align 8
  %19 = add i64 %16, %7
  %.fr14.i = freeze i64 %19
  %20 = srem i64 %.fr14.i, %18
  %21 = sub nsw i64 %.fr14.i, %20
  br label %AdjustTimeForTypmod.exit

AdjustTimeForTypmod.exit:                         ; preds = %12, %.sink.split.i
  %.0 = phi i64 [ %21, %.sink.split.i ], [ %7, %12 ]
  ret i64 %.0
}